target datalayout = "e-m:e-p270:32:32-p271:32:32-p272:64:64-i64:64-i128:128-f80:128-n8:16:32:64-S128"
target triple = "x86_64-pc-linux-gnu"

%"class.std::__cxx11::basic_string" = type { %"struct.std::__cxx11::basic_string<char>::_Alloc_hider", i64, %union.anon }
%"struct.std::__cxx11::basic_string<char>::_Alloc_hider" = type { ptr }
%union.anon = type { i64, [8 x i8] }
%"class.Ipopt::ReferencedObject.base" = type <{ ptr, i32 }>
%"class.Ipopt::SmartPtr" = type { ptr }
%"class.Ipopt::RegisteredOptions" = type { %"class.Ipopt::ReferencedObject.base", %"class.std::map", %"class.std::map.16", i32, %"class.Ipopt::SmartPtr" }
%"class.std::map" = type { %"class.std::_Rb_tree" }
%"class.std::_Rb_tree" = type { %"struct.std::_Rb_tree<std::__cxx11::basic_string<char>, std::pair<const std::__cxx11::basic_string<char>, Ipopt::SmartPtr<Ipopt::RegisteredOption>>, std::_Select1st<std::pair<const std::__cxx11::basic_string<char>, Ipopt::SmartPtr<Ipopt::RegisteredOption>>>, std::less<std::__cxx11::basic_string<char>>>::_Rb_tree_impl" }
%"struct.std::_Rb_tree<std::__cxx11::basic_string<char>, std::pair<const std::__cxx11::basic_string<char>, Ipopt::SmartPtr<Ipopt::RegisteredOption>>, std::_Select1st<std::pair<const std::__cxx11::basic_string<char>, Ipopt::SmartPtr<Ipopt::RegisteredOption>>>, std::less<std::__cxx11::basic_string<char>>>::_Rb_tree_impl" = type { [8 x i8], %"struct.std::_Rb_tree_header" }
%"struct.std::_Rb_tree_header" = type { %"struct.std::_Rb_tree_node_base", i64 }
%"struct.std::_Rb_tree_node_base" = type { i32, ptr, ptr, ptr }
%"class.std::map.16" = type { %"class.std::_Rb_tree.17" }
%"class.std::_Rb_tree.17" = type { %"struct.std::_Rb_tree<std::__cxx11::basic_string<char>, std::pair<const std::__cxx11::basic_string<char>, Ipopt::SmartPtr<Ipopt::RegisteredCategory>>, std::_Select1st<std::pair<const std::__cxx11::basic_string<char>, Ipopt::SmartPtr<Ipopt::RegisteredCategory>>>, std::less<std::__cxx11::basic_string<char>>>::_Rb_tree_impl" }
%"struct.std::_Rb_tree<std::__cxx11::basic_string<char>, std::pair<const std::__cxx11::basic_string<char>, Ipopt::SmartPtr<Ipopt::RegisteredCategory>>, std::_Select1st<std::pair<const std::__cxx11::basic_string<char>, Ipopt::SmartPtr<Ipopt::RegisteredCategory>>>, std::less<std::__cxx11::basic_string<char>>>::_Rb_tree_impl" = type { [8 x i8], %"struct.std::_Rb_tree_header" }
%"class.Ipopt::SmartPtr.21" = type { ptr }
%"struct.std::_Vector_base.23" = type { %"struct.std::_Vector_base<std::__cxx11::basic_string<char>, std::allocator<std::__cxx11::basic_string<char>>>::_Vector_impl" }
%"struct.std::_Vector_base<std::__cxx11::basic_string<char>, std::allocator<std::__cxx11::basic_string<char>>>::_Vector_impl" = type { %"struct.std::_Vector_base<std::__cxx11::basic_string<char>, std::allocator<std::__cxx11::basic_string<char>>>::_Vector_impl_data" }
%"struct.std::_Vector_base<std::__cxx11::basic_string<char>, std::allocator<std::__cxx11::basic_string<char>>>::_Vector_impl_data" = type { ptr, ptr, ptr }
%"class.Ipopt::ReferencedObject" = type <{ ptr, i32, [4 x i8] }>

; Function Attrs: inlinehint mustprogress nounwind uwtable
define linkonce_odr noundef i32 @_ZNK5Ipopt16ReferencedObject14ReferenceCountEv(ptr noundef nonnull align 8 dereferenceable(12) %0) #7 comdat align 2 {
  %2 = alloca ptr, align 8
  store ptr %0, ptr %2, align 8, !tbaa !200
  %3 = load ptr, ptr %2, align 8
  %4 = getelementptr inbounds nuw %"class.Ipopt::ReferencedObject", ptr %3, i32 0, i32 1
  %5 = load i32, ptr %4, align 8, !tbaa !202
  ret i32 %5
}

; Function Attrs: inlinehint mustprogress nounwind uwtable
define linkonce_odr void @_ZNK5Ipopt16ReferencedObject10ReleaseRefEPKNS_10ReferencerE(ptr noundef nonnull align 8 dereferenceable(12) %0, ptr noundef %1) #7 comdat align 2 {
  %3 = alloca ptr, align 8
  %4 = alloca ptr, align 8
  store ptr %0, ptr %3, align 8, !tbaa !200
  store ptr %1, ptr %4, align 8, !tbaa !221
  %5 = load ptr, ptr %3, align 8
  %6 = getelementptr inbounds nuw %"class.Ipopt::ReferencedObject", ptr %5, i32 0, i32 1
  %7 = load i32, ptr %6, align 8, !tbaa !202
  %8 = add nsw i32 %7, -1
  store i32 %8, ptr %6, align 8, !tbaa !202
  ret void
}

; Function Attrs: inlinehint mustprogress nounwind uwtable
define linkonce_odr void @_ZNK5Ipopt16ReferencedObject6AddRefEPKNS_10ReferencerE(ptr noundef nonnull align 8 dereferenceable(12) %0, ptr noundef %1) #7 comdat align 2 {
  %3 = alloca ptr, align 8
  %4 = alloca ptr, align 8
  store ptr %0, ptr %3, align 8, !tbaa !200
  store ptr %1, ptr %4, align 8, !tbaa !221
  %5 = load ptr, ptr %3, align 8
  %6 = getelementptr inbounds nuw %"class.Ipopt::ReferencedObject", ptr %5, i32 0, i32 1
  %7 = load i32, ptr %6, align 8, !tbaa !202
  %8 = add nsw i32 %7, 1
  store i32 %8, ptr %6, align 8, !tbaa !202
  ret void
}

; Function Attrs: mustprogress nounwind uwtable
define linkonce_odr void @_ZN5Ipopt8SmartPtrINS_16RegisteredOptionEE15ReleasePointer_Ev(ptr noundef nonnull align 8 dereferenceable(8) %0) #6 comdat align 2 {
  %2 = alloca ptr, align 8
  store ptr %0, ptr %2, align 8, !tbaa !105
  %3 = load ptr, ptr %2, align 8
  %4 = getelementptr inbounds nuw %"class.Ipopt::SmartPtr.21", ptr %3, i32 0, i32 0
  %5 = load ptr, ptr %4, align 8, !tbaa !113
  %6 = icmp ne ptr %5, null
  br i1 %6, label %7, label %25

7:                                                ; preds = %1
  %8 = getelementptr inbounds nuw %"class.Ipopt::SmartPtr.21", ptr %3, i32 0, i32 0
  %9 = load ptr, ptr %8, align 8, !tbaa !113
  call void @_ZNK5Ipopt16ReferencedObject10ReleaseRefEPKNS_10ReferencerE(ptr noundef nonnull align 8 dereferenceable(12) %9, ptr noundef %3)
  %10 = getelementptr inbounds nuw %"class.Ipopt::SmartPtr.21", ptr %3, i32 0, i32 0
  %11 = load ptr, ptr %10, align 8, !tbaa !113
  %12 = call noundef i32 @_ZNK5Ipopt16ReferencedObject14ReferenceCountEv(ptr noundef nonnull align 8 dereferenceable(12) %11)
  %13 = icmp eq i32 %12, 0
  br i1 %13, label %14, label %24

14:                                               ; preds = %7
  %15 = getelementptr inbounds nuw %"class.Ipopt::SmartPtr.21", ptr %3, i32 0, i32 0
  %16 = load ptr, ptr %15, align 8, !tbaa !113
  %17 = icmp eq ptr %16, null
  br i1 %17, label %22, label %18

18:                                               ; preds = %14
  %19 = load ptr, ptr %16, align 8, !tbaa !31
  %20 = getelementptr inbounds ptr, ptr %19, i64 1
  %21 = load ptr, ptr %20, align 8
  call void %21(ptr noundef nonnull align 8 dereferenceable(220) %16) #3
  br label %22

22:                                               ; preds = %18, %14
  %23 = getelementptr inbounds nuw %"class.Ipopt::SmartPtr.21", ptr %3, i32 0, i32 0
  store ptr null, ptr %23, align 8, !tbaa !113
  br label %24

24:                                               ; preds = %22, %7
  br label %25

25:                                               ; preds = %24, %1
  ret void
}

; Function Attrs: mustprogress uwtable
define linkonce_odr noundef nonnull align 8 dereferenceable(8) ptr @_ZN5Ipopt8SmartPtrINS_16RegisteredOptionEE14SetFromRawPtr_EPS1_(ptr noundef nonnull align 8 dereferenceable(8) %0, ptr noundef %1) #4 comdat align 2 {
  %3 = alloca ptr, align 8
  %4 = alloca ptr, align 8
  store ptr %0, ptr %3, align 8, !tbaa !105
  store ptr %1, ptr %4, align 8, !tbaa !3
  %5 = load ptr, ptr %3, align 8
  %6 = load ptr, ptr %4, align 8, !tbaa !3
  %7 = icmp ne ptr %6, null
  br i1 %7, label %8, label %10

8:                                                ; preds = %2
  %9 = load ptr, ptr %4, align 8, !tbaa !3
  call void @_ZNK5Ipopt16ReferencedObject6AddRefEPKNS_10ReferencerE(ptr noundef nonnull align 8 dereferenceable(12) %9, ptr noundef %5)
  br label %10

10:                                               ; preds = %8, %2
  call void @_ZN5Ipopt8SmartPtrINS_16RegisteredOptionEE15ReleasePointer_Ev(ptr noundef nonnull align 8 dereferenceable(8) %5)
  %11 = load ptr, ptr %4, align 8, !tbaa !3
  %12 = getelementptr inbounds nuw %"class.Ipopt::SmartPtr.21", ptr %5, i32 0, i32 0
  store ptr %11, ptr %12, align 8, !tbaa !113
  ret ptr %5
}

; Function Attrs: mustprogress nounwind uwtable
define linkonce_odr void @_ZN5Ipopt8SmartPtrINS_16RegisteredOptionEED2Ev(ptr noundef nonnull align 8 dereferenceable(8) %0) unnamed_addr #6 comdat align 2 {
  %2 = alloca ptr, align 8
  store ptr %0, ptr %2, align 8, !tbaa !105
  %3 = load ptr, ptr %2, align 8
  call void @_ZN5Ipopt8SmartPtrINS_16RegisteredOptionEE15ReleasePointer_Ev(ptr noundef nonnull align 8 dereferenceable(8) %3)
  ret void
}

; Function Attrs: mustprogress nounwind uwtable
define linkonce_odr noundef nonnull align 8 dereferenceable(32) ptr @_ZNKSt6vectorINSt7__cxx1112basic_stringIcSt11char_traitsIcESaIcEEESaIS5_EEixEm(ptr noundef nonnull align 8 dereferenceable(24) %0, i64 noundef %1) #6 comdat align 2 {
  %3 = alloca ptr, align 8
  %4 = alloca i64, align 8
  store ptr %0, ptr %3, align 8, !tbaa !134
  store i64 %1, ptr %4, align 8, !tbaa !65
  %5 = load ptr, ptr %3, align 8
  %6 = getelementptr inbounds nuw %"struct.std::_Vector_base.23", ptr %5, i32 0, i32 0
  %7 = getelementptr inbounds nuw %"struct.std::_Vector_base<std::__cxx11::basic_string<char>, std::allocator<std::__cxx11::basic_string<char>>>::_Vector_impl_data", ptr %6, i32 0, i32 0
  %8 = load ptr, ptr %7, align 8, !tbaa !139
  %9 = load i64, ptr %4, align 8, !tbaa !65
  %10 = getelementptr inbounds nuw %"class.std::__cxx11::basic_string", ptr %8, i64 %9
  ret ptr %10
}

; Function Attrs: mustprogress nounwind uwtable
define linkonce_odr noundef i64 @_ZNKSt6vectorINSt7__cxx1112basic_stringIcSt11char_traitsIcESaIcEEESaIS5_EE4sizeEv(ptr noundef nonnull align 8 dereferenceable(24) %0) #6 comdat align 2 {
  %2 = alloca ptr, align 8
  store ptr %0, ptr %2, align 8, !tbaa !134
  %3 = load ptr, ptr %2, align 8
  %4 = getelementptr inbounds nuw %"struct.std::_Vector_base.23", ptr %3, i32 0, i32 0
  %5 = getelementptr inbounds nuw %"struct.std::_Vector_base<std::__cxx11::basic_string<char>, std::allocator<std::__cxx11::basic_string<char>>>::_Vector_impl_data", ptr %4, i32 0, i32 1
  %6 = load ptr, ptr %5, align 8, !tbaa !137
  %7 = getelementptr inbounds nuw %"struct.std::_Vector_base.23", ptr %3, i32 0, i32 0
  %8 = getelementptr inbounds nuw %"struct.std::_Vector_base<std::__cxx11::basic_string<char>, std::allocator<std::__cxx11::basic_string<char>>>::_Vector_impl_data", ptr %7, i32 0, i32 0
  %9 = load ptr, ptr %8, align 8, !tbaa !139
  %10 = ptrtoint ptr %6 to i64
  %11 = ptrtoint ptr %9 to i64
  %12 = sub i64 %10, %11
  %13 = sdiv exact i64 %12, 32
  ret i64 %13
}

; Function Attrs: mustprogress nounwind uwtable
define linkonce_odr noundef ptr @_ZNK5Ipopt8SmartPtrINS_16RegisteredOptionEEptEv(ptr noundef nonnull align 8 dereferenceable(8) %0) #6 comdat align 2 {
  %2 = alloca ptr, align 8
  store ptr %0, ptr %2, align 8, !tbaa !105
  %3 = load ptr, ptr %2, align 8
  %4 = getelementptr inbounds nuw %"class.Ipopt::SmartPtr.21", ptr %3, i32 0, i32 0
  %5 = load ptr, ptr %4, align 8, !tbaa !113
  ret ptr %5
}

; Function Attrs: mustprogress uwtable
define linkonce_odr void @_ZN5Ipopt8SmartPtrINS_16RegisteredOptionEEC2EPS1_(ptr noundef nonnull align 8 dereferenceable(8) %0, ptr noundef %1) unnamed_addr #4 comdat align 2 {
  %3 = alloca ptr, align 8
  %4 = alloca ptr, align 8
  store ptr %0, ptr %3, align 8, !tbaa !105
  store ptr %1, ptr %4, align 8, !tbaa !3
  %5 = load ptr, ptr %3, align 8
  %6 = getelementptr inbounds nuw %"class.Ipopt::SmartPtr.21", ptr %5, i32 0, i32 0
  store ptr null, ptr %6, align 8, !tbaa !113
  %7 = load ptr, ptr %4, align 8, !tbaa !3
  %8 = call noundef nonnull align 8 dereferenceable(8) ptr @_ZN5Ipopt8SmartPtrINS_16RegisteredOptionEE14SetFromRawPtr_EPS1_(ptr noundef nonnull align 8 dereferenceable(8) %5, ptr noundef %7)
  ret void
}

; Function Attrs: mustprogress uwtable
define void @_ZN5Ipopt17RegisteredOptions15AddStringOptionERKNSt7__cxx1112basic_stringIcSt11char_traitsIcESaIcEEES8_S8_RKSt6vectorIS6_SaIS6_EESD_S8_b(ptr noundef nonnull align 8 dereferenceable(128) %0, ptr noundef nonnull align 8 dereferenceable(32) %1, ptr noundef nonnull align 8 dereferenceable(32) %2, ptr noundef nonnull align 8 dereferenceable(32) %3, ptr noundef nonnull align 8 dereferenceable(24) %4, ptr noundef nonnull align 8 dereferenceable(24) %5, ptr noundef nonnull align 8 dereferenceable(32) %6, i1 noundef zeroext %7) unnamed_addr #4 align 2 personality ptr @__gxx_personality_v0 {
  %9 = alloca ptr, align 8
  %10 = alloca ptr, align 8
  %11 = alloca ptr, align 8
  %12 = alloca ptr, align 8
  %13 = alloca ptr, align 8
  %14 = alloca ptr, align 8
  %15 = alloca ptr, align 8
  %16 = alloca i8, align 1
  %17 = alloca %"class.Ipopt::SmartPtr.21", align 8
  %18 = alloca ptr, align 8
  %19 = alloca i32, align 4
  %20 = alloca i32, align 4
  %21 = alloca i64, align 8
  store ptr %0, ptr %9, align 8, !tbaa !90
  store ptr %1, ptr %10, align 8, !tbaa !44
  store ptr %2, ptr %11, align 8, !tbaa !44
  store ptr %3, ptr %12, align 8, !tbaa !44
  store ptr %4, ptr %13, align 8, !tbaa !134
  store ptr %5, ptr %14, align 8, !tbaa !134
  store ptr %6, ptr %15, align 8, !tbaa !44
  %22 = zext i1 %7 to i8
  store i8 %22, ptr %16, align 1, !tbaa !63
  %23 = load ptr, ptr %9, align 8
  call void @llvm.lifetime.start.p0(i64 8, ptr %17) #3
  %24 = call noalias noundef nonnull ptr @_Znwm(i64 noundef 224) #20
  %25 = load ptr, ptr %10, align 8, !tbaa !44
  %26 = load ptr, ptr %11, align 8, !tbaa !44
  %27 = load ptr, ptr %15, align 8, !tbaa !44
  %28 = getelementptr inbounds nuw %"class.Ipopt::RegisteredOptions", ptr %23, i32 0, i32 4
  %29 = getelementptr inbounds nuw %"class.Ipopt::RegisteredOptions", ptr %23, i32 0, i32 3
  %30 = load i32, ptr %29, align 8, !tbaa !119
  %31 = add nsw i32 %30, 1
  store i32 %31, ptr %29, align 8, !tbaa !119
  %32 = load i8, ptr %16, align 1, !tbaa !63, !range !29, !noundef !30
  %33 = trunc i8 %32 to i1
  invoke void @_ZN5Ipopt16RegisteredOptionC2ERKNSt7__cxx1112basic_stringIcSt11char_traitsIcESaIcEEES8_S8_RKNS_8SmartPtrINS_18RegisteredCategoryEEEib(ptr noundef nonnull align 8 dereferenceable(220) %24, ptr noundef nonnull align 8 dereferenceable(32) %25, ptr noundef nonnull align 8 dereferenceable(32) %26, ptr noundef nonnull align 8 dereferenceable(32) %27, ptr noundef nonnull align 8 dereferenceable(8) %28, i32 noundef %30, i1 noundef zeroext %33)
          to label %34 unwind label %54

34:                                               ; preds = %8
  call void @_ZN5Ipopt8SmartPtrINS_16RegisteredOptionEEC2EPS1_(ptr noundef nonnull align 8 dereferenceable(8) %17, ptr noundef %24)
  %35 = invoke noundef ptr @_ZNK5Ipopt8SmartPtrINS_16RegisteredOptionEEptEv(ptr noundef nonnull align 8 dereferenceable(8) %17)
          to label %36 unwind label %58

36:                                               ; preds = %34
  call void @llvm.lifetime.start.p0(i64 4, ptr %20) #3
  store i32 2, ptr %20, align 4, !tbaa !132
  %37 = load ptr, ptr %35, align 8, !tbaa !31
  %38 = getelementptr inbounds ptr, ptr %37, i64 10
  %39 = load ptr, ptr %38, align 8
  invoke void %39(ptr noundef nonnull align 8 dereferenceable(220) %35, ptr noundef nonnull align 4 dereferenceable(4) %20)
          to label %40 unwind label %62

40:                                               ; preds = %36
  call void @llvm.lifetime.end.p0(i64 4, ptr %20) #3
  %41 = invoke noundef ptr @_ZNK5Ipopt8SmartPtrINS_16RegisteredOptionEEptEv(ptr noundef nonnull align 8 dereferenceable(8) %17)
          to label %42 unwind label %58

42:                                               ; preds = %40
  %43 = load ptr, ptr %12, align 8, !tbaa !44
  %44 = load ptr, ptr %41, align 8, !tbaa !31
  %45 = getelementptr inbounds ptr, ptr %44, i64 33
  %46 = load ptr, ptr %45, align 8
  invoke void %46(ptr noundef nonnull align 8 dereferenceable(220) %41, ptr noundef nonnull align 8 dereferenceable(32) %43)
          to label %47 unwind label %58

47:                                               ; preds = %42
  call void @llvm.lifetime.start.p0(i64 8, ptr %21) #3
  store i64 0, ptr %21, align 8, !tbaa !65
  br label %48

48:                                               ; preds = %79, %47
  %49 = load i64, ptr %21, align 8, !tbaa !65
  %50 = load ptr, ptr %13, align 8, !tbaa !134
  %51 = call noundef i64 @_ZNKSt6vectorINSt7__cxx1112basic_stringIcSt11char_traitsIcESaIcEEESaIS5_EE4sizeEv(ptr noundef nonnull align 8 dereferenceable(24) %50) #3
  %52 = icmp ult i64 %49, %51
  br i1 %52, label %66, label %53

53:                                               ; preds = %48
  call void @llvm.lifetime.end.p0(i64 8, ptr %21) #3
  br label %86

54:                                               ; preds = %8
  %55 = landingpad { ptr, i32 }
          cleanup
  %56 = extractvalue { ptr, i32 } %55, 0
  store ptr %56, ptr %18, align 8
  %57 = extractvalue { ptr, i32 } %55, 1
  store i32 %57, ptr %19, align 4
  call void @_ZdlPvm(ptr noundef %24, i64 noundef 224) #21
  br label %89

58:                                               ; preds = %86, %42, %40, %34
  %59 = landingpad { ptr, i32 }
          cleanup
  %60 = extractvalue { ptr, i32 } %59, 0
  store ptr %60, ptr %18, align 8
  %61 = extractvalue { ptr, i32 } %59, 1
  store i32 %61, ptr %19, align 4
  br label %88

62:                                               ; preds = %36
  %63 = landingpad { ptr, i32 }
          cleanup
  %64 = extractvalue { ptr, i32 } %63, 0
  store ptr %64, ptr %18, align 8
  %65 = extractvalue { ptr, i32 } %63, 1
  store i32 %65, ptr %19, align 4
  call void @llvm.lifetime.end.p0(i64 4, ptr %20) #3
  br label %88

66:                                               ; preds = %48
  %67 = invoke noundef ptr @_ZNK5Ipopt8SmartPtrINS_16RegisteredOptionEEptEv(ptr noundef nonnull align 8 dereferenceable(8) %17)
          to label %68 unwind label %82

68:                                               ; preds = %66
  %69 = load ptr, ptr %13, align 8, !tbaa !134
  %70 = load i64, ptr %21, align 8, !tbaa !65
  %71 = call noundef nonnull align 8 dereferenceable(32) ptr @_ZNKSt6vectorINSt7__cxx1112basic_stringIcSt11char_traitsIcESaIcEEESaIS5_EEixEm(ptr noundef nonnull align 8 dereferenceable(24) %69, i64 noundef %70) #3
  %72 = load ptr, ptr %14, align 8, !tbaa !134
  %73 = load i64, ptr %21, align 8, !tbaa !65
  %74 = call noundef nonnull align 8 dereferenceable(32) ptr @_ZNKSt6vectorINSt7__cxx1112basic_stringIcSt11char_traitsIcESaIcEEESaIS5_EEixEm(ptr noundef nonnull align 8 dereferenceable(24) %72, i64 noundef %73) #3
  %75 = load ptr, ptr %67, align 8, !tbaa !31
  %76 = getelementptr inbounds ptr, ptr %75, i64 26
  %77 = load ptr, ptr %76, align 8
  invoke void %77(ptr noundef nonnull align 8 dereferenceable(220) %67, ptr noundef nonnull align 8 dereferenceable(32) %71, ptr noundef nonnull align 8 dereferenceable(32) %74)
          to label %78 unwind label %82

78:                                               ; preds = %68
  br label %79

79:                                               ; preds = %78
  %80 = load i64, ptr %21, align 8, !tbaa !65
  %81 = add i64 %80, 1
  store i64 %81, ptr %21, align 8, !tbaa !65
  br label %48, !llvm.loop !136

82:                                               ; preds = %68, %66
  %83 = landingpad { ptr, i32 }
          cleanup
  %84 = extractvalue { ptr, i32 } %83, 0
  store ptr %84, ptr %18, align 8
  %85 = extractvalue { ptr, i32 } %83, 1
  store i32 %85, ptr %19, align 4
  call void @llvm.lifetime.end.p0(i64 8, ptr %21) #3
  br label %88

86:                                               ; preds = %53
  invoke void @_ZN5Ipopt17RegisteredOptions9AddOptionERKNS_8SmartPtrINS_16RegisteredOptionEEE(ptr noundef nonnull align 8 dereferenceable(128) %23, ptr noundef nonnull align 8 dereferenceable(8) %17)
          to label %87 unwind label %58

87:                                               ; preds = %86
  call void @_ZN5Ipopt8SmartPtrINS_16RegisteredOptionEED2Ev(ptr noundef nonnull align 8 dereferenceable(8) %17) #3
  call void @llvm.lifetime.end.p0(i64 8, ptr %17) #3
  ret void

88:                                               ; preds = %82, %62, %58
  call void @_ZN5Ipopt8SmartPtrINS_16RegisteredOptionEED2Ev(ptr noundef nonnull align 8 dereferenceable(8) %17) #3
  br label %89

89:                                               ; preds = %88, %54
  call void @llvm.lifetime.end.p0(i64 8, ptr %17) #3
  br label %90

90:                                               ; preds = %89
  %91 = load ptr, ptr %18, align 8
  %92 = load i32, ptr %19, align 4
  %93 = insertvalue { ptr, i32 } poison, ptr %91, 0
  %94 = insertvalue { ptr, i32 } %93, i32 %92, 1
  resume { ptr, i32 } %94
}