; Function Attrs: mustprogress uwtable
define void @_ZN5Ipopt17RegisteredOptions15AddStringOptionERKNSt7__cxx1112basic_stringIcSt11char_traitsIcESaIcEEES8_S8_RKSt6vectorIS6_SaIS6_EESD_S8_b(ptr noundef nonnull align 8 dereferenceable(128) %0, ptr noundef nonnull align 8 dereferenceable(32) %1, ptr noundef nonnull align 8 dereferenceable(32) %2, ptr noundef nonnull align 8 dereferenceable(32) %3, ptr noundef nonnull readonly align 8 captures(none) dereferenceable(24) %4, ptr noundef nonnull readonly align 8 captures(none) dereferenceable(24) %5, ptr noundef nonnull align 8 dereferenceable(32) %6, i1 noundef zeroext %7) unnamed_addr #3 align 2 personality ptr @__gxx_personality_v0 {
  %9 = alloca %"class.Ipopt::SmartPtr.21", align 8
  %10 = alloca i32, align 4
  call void @llvm.lifetime.start.p0(i64 8, ptr nonnull %9) #23
  %11 = tail call noalias noundef nonnull dereferenceable(224) ptr @_Znwm(i64 noundef 224) #27
  %12 = getelementptr inbounds nuw i8, ptr %0, i64 120
  %13 = getelementptr inbounds nuw i8, ptr %0, i64 112
  %14 = load i32, ptr %13, align 8, !tbaa !86
  %15 = add nsw i32 %14, 1
  store i32 %15, ptr %13, align 8, !tbaa !86
  invoke void @_ZN5Ipopt16RegisteredOptionC2ERKNSt7__cxx1112basic_stringIcSt11char_traitsIcESaIcEEES8_S8_RKNS_8SmartPtrINS_18RegisteredCategoryEEEib(ptr noundef nonnull align 8 dereferenceable(220) %11, ptr noundef nonnull align 8 dereferenceable(32) %1, ptr noundef nonnull align 8 dereferenceable(32) %2, ptr noundef nonnull align 8 dereferenceable(32) %6, ptr noundef nonnull align 8 dereferenceable(8) %12, i32 noundef %14, i1 noundef zeroext %7)
          to label %16 unwind label %30

16:                                               ; preds = %8
  %17 = getelementptr inbounds nuw i8, ptr %11, i64 8
  %18 = load i32, ptr %17, align 8, !tbaa !59
  %19 = add nsw i32 %18, 1
  store i32 %19, ptr %17, align 8, !tbaa !59
  store ptr %11, ptr %9, align 8, !tbaa !80
  call void @llvm.lifetime.start.p0(i64 4, ptr nonnull %10) #23
  store i32 2, ptr %10, align 4, !tbaa !96
  %20 = load ptr, ptr %11, align 8, !tbaa !32
  %21 = getelementptr inbounds nuw i8, ptr %20, i64 80
  %22 = load ptr, ptr %21, align 8
  invoke void %22(ptr noundef nonnull align 8 dereferenceable(220) %11, ptr noundef nonnull align 4 dereferenceable(4) %10)
          to label %23 unwind label %34

23:                                               ; preds = %16
  call void @llvm.lifetime.end.p0(i64 4, ptr nonnull %10) #23
  %24 = load ptr, ptr %11, align 8, !tbaa !32
  %25 = getelementptr inbounds nuw i8, ptr %24, i64 264
  %26 = load ptr, ptr %25, align 8
  invoke void %26(ptr noundef nonnull align 8 dereferenceable(220) %11, ptr noundef nonnull align 8 dereferenceable(32) %3)
          to label %.preheader unwind label %32

.preheader:                                       ; preds = %23
  %27 = getelementptr inbounds nuw i8, ptr %4, i64 8
  %28 = load ptr, ptr %27, align 8, !tbaa !100
  %29 = load ptr, ptr %4, align 8, !tbaa !102
  %.not = icmp eq ptr %28, %29
  br i1 %.not, label %._crit_edge, label %.lr.ph

._crit_edge:                                      ; preds = %43, %.preheader
  invoke void @_ZN5Ipopt17RegisteredOptions9AddOptionERKNS_8SmartPtrINS_16RegisteredOptionEEE(ptr noundef nonnull align 8 dereferenceable(128) %0, ptr noundef nonnull align 8 dereferenceable(8) %9)
          to label %54 unwind label %32

30:                                               ; preds = %8
  %31 = landingpad { ptr, i32 }
          cleanup
  tail call void @_ZdlPvm(ptr noundef nonnull %11, i64 noundef 224) #24
  br label %_ZN5Ipopt8SmartPtrINS_16RegisteredOptionEED2Ev.exit20

32:                                               ; preds = %._crit_edge, %23
  %33 = landingpad { ptr, i32 }
          cleanup
  br label %62

34:                                               ; preds = %16
  %35 = landingpad { ptr, i32 }
          cleanup
  call void @llvm.lifetime.end.p0(i64 4, ptr nonnull %10) #23
  br label %62

.lr.ph:                                           ; preds = %.preheader, %43
  %36 = phi ptr [ %46, %43 ], [ %29, %.preheader ]
  %.021 = phi i64 [ %44, %43 ], [ 0, %.preheader ]
  %37 = getelementptr inbounds nuw %"class.std::__cxx11::basic_string", ptr %36, i64 %.021
  %38 = load ptr, ptr %5, align 8, !tbaa !102
  %39 = getelementptr inbounds nuw %"class.std::__cxx11::basic_string", ptr %38, i64 %.021
  %40 = load ptr, ptr %11, align 8, !tbaa !32
  %41 = getelementptr inbounds nuw i8, ptr %40, i64 208
  %42 = load ptr, ptr %41, align 8
  invoke void %42(ptr noundef nonnull align 8 dereferenceable(220) %11, ptr noundef nonnull align 8 dereferenceable(32) %37, ptr noundef nonnull align 8 dereferenceable(32) %39)
          to label %43 unwind label %52

43:                                               ; preds = %.lr.ph
  %44 = add nuw i64 %.021, 1
  %45 = load ptr, ptr %27, align 8, !tbaa !100
  %46 = load ptr, ptr %4, align 8, !tbaa !102
  %47 = ptrtoint ptr %45 to i64
  %48 = ptrtoint ptr %46 to i64
  %49 = sub i64 %47, %48
  %50 = ashr exact i64 %49, 5
  %51 = icmp ult i64 %44, %50
  br i1 %51, label %.lr.ph, label %._crit_edge, !llvm.loop !103

52:                                               ; preds = %.lr.ph
  %53 = landingpad { ptr, i32 }
          cleanup
  br label %62

54:                                               ; preds = %._crit_edge
  %55 = load i32, ptr %17, align 8, !tbaa !59
  %56 = add nsw i32 %55, -1
  store i32 %56, ptr %17, align 8, !tbaa !59
  %57 = icmp eq i32 %56, 0
  br i1 %57, label %58, label %_ZN5Ipopt8SmartPtrINS_16RegisteredOptionEED2Ev.exit

58:                                               ; preds = %54
  %59 = load ptr, ptr %11, align 8, !tbaa !32
  %60 = getelementptr inbounds nuw i8, ptr %59, i64 8
  %61 = load ptr, ptr %60, align 8
  call void %61(ptr noundef nonnull align 8 dereferenceable(220) %11) #23
  br label %_ZN5Ipopt8SmartPtrINS_16RegisteredOptionEED2Ev.exit

_ZN5Ipopt8SmartPtrINS_16RegisteredOptionEED2Ev.exit: ; preds = %54, %58
  call void @llvm.lifetime.end.p0(i64 8, ptr nonnull %9) #23
  ret void

62:                                               ; preds = %32, %34, %52
  %.pn = phi { ptr, i32 } [ %53, %52 ], [ %33, %32 ], [ %35, %34 ]
  %63 = load i32, ptr %17, align 8, !tbaa !59
  %64 = add nsw i32 %63, -1
  store i32 %64, ptr %17, align 8, !tbaa !59
  %65 = icmp eq i32 %64, 0
  br i1 %65, label %66, label %_ZN5Ipopt8SmartPtrINS_16RegisteredOptionEED2Ev.exit20

66:                                               ; preds = %62
  %67 = load ptr, ptr %11, align 8, !tbaa !32
  %68 = getelementptr inbounds nuw i8, ptr %67, i64 8
  %69 = load ptr, ptr %68, align 8
  call void %69(ptr noundef nonnull align 8 dereferenceable(220) %11) #23
  br label %_ZN5Ipopt8SmartPtrINS_16RegisteredOptionEED2Ev.exit20

_ZN5Ipopt8SmartPtrINS_16RegisteredOptionEED2Ev.exit20: ; preds = %66, %62, %30
  %.pn.pn = phi { ptr, i32 } [ %31, %30 ], [ %.pn, %62 ], [ %.pn, %66 ]
  call void @llvm.lifetime.end.p0(i64 8, ptr nonnull %9) #23
  resume { ptr, i32 } %.pn.pn
}